Certificate:
    Data:
        Version: 1 (0x0)
        Serial Number: 4097 (0x1001)
        Signature Algorithm: sha256WithRSAEncryption
        Issuer: CN=Interm.
        Validity
            Not Before: Aug 21 09:44:16 2019 GMT
            Not After : Aug 20 09:44:16 2020 GMT
        Subject: CN=client.example.com
        Subject Public Key Info:
            Public Key Algorithm: rsaEncryption
            RSA Public Key: (2048 bit)
                Modulus (2048 bit):
                    00:bb:57:e5:05:02:70:95:97:39:f9:c8:ac:a6:fd:
                    39:7a:6d:a6:c7:cc:5a:e6:04:5b:76:34:04:90:a6:
                    6f:4b:e6:be:bc:46:70:2b:74:af:09:97:45:c6:82:
                    da:0c:0f:a2:af:14:26:66:68:7f:4d:78:02:6f:6b:
                    11:66:34:f5:1f:5c:34:55:59:32:7b:27:80:86:a6:
                    0a:e6:43:d7:8d:44:95:98:fb:84:fc:42:4b:ee:d7:
                    05:4d:e4:02:fb:71:67:22:db:f4:a1:25:6f:56:01:
                    a4:61:2a:8c:e7:f1:58:54:a1:f1:1e:38:30:ff:f9:
                    8e:85:10:01:c4:d2:85:68:f9:31:88:05:56:b3:16:
                    55:3b:28:a5:54:f0:55:f7:ea:5c:08:2e:c7:60:23:
                    b0:49:e9:59:27:3a:92:28:1d:0a:cc:81:d2:ea:4a:
                    42:fa:68:bc:06:7b:86:d4:a0:5a:e3:18:4b:85:c6:
                    17:e8:d2:bd:3f:65:5f:37:7a:ff:87:91:1e:29:8f:
                    dc:ae:ef:ac:42:f4:7b:7b:ec:0e:16:0e:ed:67:fc:
                    6a:6c:30:19:b7:4c:5d:78:6b:aa:11:ba:21:ab:7e:
                    b1:e7:8b:a9:2c:35:04:55:c8:dc:2e:9b:31:68:be:
                    56:6f:18:34:d3:1e:3b:8a:3c:0c:ef:d5:74:84:ca:
                    81:2d
                Exponent: 65537 (0x10001)
    Signature Algorithm: sha256WithRSAEncryption
        a2:b9:c8:22:76:08:0d:5f:31:3d:e1:b4:5c:75:c5:23:b1:28:
        8d:7d:e5:88:db:f2:55:df:d6:b6:9d:8d:bd:d3:6f:0f:96:48:
        c6:3c:9e:5f:fa:3f:55:1e:12:3c:f1:e6:b0:fb:31:9f:1b:5b:
        69:4d:3f:5d:50:8c:ed:06:7e:14:41:f5:92:ec:a5:25:d3:fb:
        bd:05:1c:4e:6e:26:69:42:38:73:91:9b:ae:a3:72:1d:d3:4b:
        53:13:56:be:e7:cd:a3:71:03:30:0a:ab:e9:e5:56:64:15:96:
        81:38:d2:4c:9d:82:5f:1e:e5:b0:00:b4:bd:b7:9b:fb:4c:dd:
        98:0a:2d:96:cd:82:3b:bb:22:f0:73:3f:ed:83:d3:18:db:7a:
        42:78:d7:83:b7:b4:07:fe:da:50:26:0c:b9:03:db:89:7d:69:
        5c:c7:86:cb:20:7a:cf:75:43:c2:d6:d0:6c:a3:3f:30:ac:55:
        d7:f2:bc:10:5f:b9:8c:13:bc:c6:4f:ef:c8:cc:db:71:bb:67:
        52:37:e8:e8:9a:25:cb:a3:f4:3b:43:5b:47:d5:8d:2d:2c:50:
        cf:50:63:60:9c:71:9a:65:26:33:6d:47:29:ac:5e:f1:01:d3:
        46:26:36:b7:2f:a4:8c:68:8a:92:33:7b:8d:c5:b1:4f:cf:1d:
        dd:c3:5d:10
-----BEGIN CERTIFICATE-----
MIICpDCCAYwCAhABMA0GCSqGSIb3DQEBCwUAMBIxEDAOBgNVBAMMB0ludGVybS4w
HhcNMTkwODIxMDk0NDE2WhcNMjAwODIwMDk0NDE2WjAdMRswGQYDVQQDExJjbGll
bnQuZXhhbXBsZS5jb20wggEiMA0GCSqGSIb3DQEBAQUAA4IBDwAwggEKAoIBAQC7
V+UFAnCVlzn5yKym/Tl6babHzFrmBFt2NASQpm9L5r68RnArdK8Jl0XGgtoMD6Kv
FCZmaH9NeAJvaxFmNPUfXDRVWTJ7J4CGpgrmQ9eNRJWY+4T8Qkvu1wVN5AL7cWci
2/ShJW9WAaRhKozn8VhUofEeODD/+Y6FEAHE0oVo+TGIBVazFlU7KKVU8FX36lwI
LsdgI7BJ6VknOpIoHQrMgdLqSkL6aLwGe4bUoFrjGEuFxhfo0r0/ZV83ev+HkR4p
j9yu76xC9Ht77A4WDu1n/GpsMBm3TF14a6oRuiGrfrHni6ksNQRVyNwumzFovlZv
GDTTHjuKPAzv1XSEyoEtAgMBAAEwDQYJKoZIhvcNAQELBQADggEBAKK5yCJ2CA1f
MT3htFx1xSOxKI195Yjb8lXf1radjb3Tbw+WSMY8nl/6P1UeEjzx5rD7MZ8bW2lN
P11QjO0GfhRB9ZLspSXT+70FHE5uJmlCOHORm66jch3TS1MTVr7nzaNxAzAKq+nl
VmQVloE40kydgl8e5bAAtL23m/tM3ZgKLZbNgju7IvBzP+2D0xjbekJ414O3tAf+
2lAmDLkD24l9aVzHhssges91Q8LW0GyjPzCsVdfyvBBfuYwTvMZP78jM23G7Z1I3
6OiaJcuj9DtDW0fVjS0sUM9QY2CccZplJjNtRymsXvEB00YmNrcvpIxoipIze43F
sU/PHd3DXRA=
-----END CERTIFICATE-----
